; Function Attrs: nounwind uwtable
define ptr @l_Lean_addTrace___at_Lean_Meta_Grind_Arith_Cutsat_resolveCooperPred___spec__2___boxed(ptr noundef %0, ptr noundef %1, ptr noundef %2, ptr noundef %3, ptr noundef %4, ptr noundef %5, ptr noundef %6, ptr noundef %7, ptr noundef %8, ptr noundef %9, ptr noundef %10, ptr noundef %11, ptr noundef %12) local_unnamed_addr #1 {
  %14 = ptrtoint ptr %2 to i64
  %15 = and i64 %14, 1
  %.not = icmp eq i64 %15, 0
  br i1 %.not, label %16, label %lean_dec.exit32

16:                                               ; preds = %13
  %17 = load i32, ptr %2, align 4, !tbaa !6
  %18 = icmp sgt i32 %17, 1
  br i1 %18, label %19, label %21, !prof !5

19:                                               ; preds = %16
  %20 = add nsw i32 %17, -1
  store i32 %20, ptr %2, align 4, !tbaa !6
  br label %lean_dec.exit32

21:                                               ; preds = %16
  %.not.i = icmp eq i32 %17, 0
  br i1 %.not.i, label %lean_dec.exit32, label %22

22:                                               ; preds = %21
  tail call void @lean_dec_ref_cold(ptr noundef nonnull %2) #6
  br label %lean_dec.exit32

lean_dec.exit32:                                  ; preds = %22, %21, %19, %13
  %23 = tail call ptr @l_Lean_addTrace___at_Lean_Meta_Grind_Arith_Cutsat_resolveCooperPred___spec__2(ptr noundef %0, ptr noundef %1, i8 zeroext poison, ptr poison, ptr poison, ptr poison, ptr poison, ptr poison, ptr noundef %8, ptr noundef %9, ptr noundef %10, ptr noundef %11, ptr noundef %12)
  %24 = ptrtoint ptr %11 to i64
  %25 = and i64 %24, 1
  %.not51 = icmp eq i64 %25, 0
  br i1 %.not51, label %26, label %lean_dec.exit31

26:                                               ; preds = %lean_dec.exit32
  %27 = load i32, ptr %11, align 4, !tbaa !6
  %28 = icmp sgt i32 %27, 1
  br i1 %28, label %29, label %31, !prof !5

29:                                               ; preds = %26
  %30 = add nsw i32 %27, -1
  store i32 %30, ptr %11, align 4, !tbaa !6
  br label %lean_dec.exit31

31:                                               ; preds = %26
  %.not.i33 = icmp eq i32 %27, 0
  br i1 %.not.i33, label %lean_dec.exit31, label %32

32:                                               ; preds = %31
  tail call void @lean_dec_ref_cold(ptr noundef nonnull %11) #6
  br label %lean_dec.exit31

lean_dec.exit31:                                  ; preds = %32, %31, %29, %lean_dec.exit32
  %33 = ptrtoint ptr %10 to i64
  %34 = and i64 %33, 1
  %.not52 = icmp eq i64 %34, 0
  br i1 %.not52, label %35, label %lean_dec.exit30

35:                                               ; preds = %lean_dec.exit31
  %36 = load i32, ptr %10, align 4, !tbaa !6
  %37 = icmp sgt i32 %36, 1
  br i1 %37, label %38, label %40, !prof !5

38:                                               ; preds = %35
  %39 = add nsw i32 %36, -1
  store i32 %39, ptr %10, align 4, !tbaa !6
  br label %lean_dec.exit30

40:                                               ; preds = %35
  %.not.i35 = icmp eq i32 %36, 0
  br i1 %.not.i35, label %lean_dec.exit30, label %41

41:                                               ; preds = %40
  tail call void @lean_dec_ref_cold(ptr noundef nonnull %10) #6
  br label %lean_dec.exit30

lean_dec.exit30:                                  ; preds = %41, %40, %38, %lean_dec.exit31
  %42 = ptrtoint ptr %9 to i64
  %43 = and i64 %42, 1
  %.not53 = icmp eq i64 %43, 0
  br i1 %.not53, label %44, label %lean_dec.exit29

44:                                               ; preds = %lean_dec.exit30
  %45 = load i32, ptr %9, align 4, !tbaa !6
  %46 = icmp sgt i32 %45, 1
  br i1 %46, label %47, label %49, !prof !5

47:                                               ; preds = %44
  %48 = add nsw i32 %45, -1
  store i32 %48, ptr %9, align 4, !tbaa !6
  br label %lean_dec.exit29

49:                                               ; preds = %44
  %.not.i37 = icmp eq i32 %45, 0
  br i1 %.not.i37, label %lean_dec.exit29, label %50

50:                                               ; preds = %49
  tail call void @lean_dec_ref_cold(ptr noundef nonnull %9) #6
  br label %lean_dec.exit29

lean_dec.exit29:                                  ; preds = %50, %49, %47, %lean_dec.exit30
  %51 = ptrtoint ptr %8 to i64
  %52 = and i64 %51, 1
  %.not54 = icmp eq i64 %52, 0
  br i1 %.not54, label %53, label %lean_dec.exit28

53:                                               ; preds = %lean_dec.exit29
  %54 = load i32, ptr %8, align 4, !tbaa !6
  %55 = icmp sgt i32 %54, 1
  br i1 %55, label %56, label %58, !prof !5

56:                                               ; preds = %53
  %57 = add nsw i32 %54, -1
  store i32 %57, ptr %8, align 4, !tbaa !6
  br label %lean_dec.exit28

58:                                               ; preds = %53
  %.not.i39 = icmp eq i32 %54, 0
  br i1 %.not.i39, label %lean_dec.exit28, label %59

59:                                               ; preds = %58
  tail call void @lean_dec_ref_cold(ptr noundef nonnull %8) #6
  br label %lean_dec.exit28

lean_dec.exit28:                                  ; preds = %59, %58, %56, %lean_dec.exit29
  %60 = ptrtoint ptr %7 to i64
  %61 = and i64 %60, 1
  %.not55 = icmp eq i64 %61, 0
  br i1 %.not55, label %62, label %lean_dec.exit27

62:                                               ; preds = %lean_dec.exit28
  %63 = load i32, ptr %7, align 4, !tbaa !6
  %64 = icmp sgt i32 %63, 1
  br i1 %64, label %65, label %67, !prof !5

65:                                               ; preds = %62
  %66 = add nsw i32 %63, -1
  store i32 %66, ptr %7, align 4, !tbaa !6
  br label %lean_dec.exit27

67:                                               ; preds = %62
  %.not.i41 = icmp eq i32 %63, 0
  br i1 %.not.i41, label %lean_dec.exit27, label %68

68:                                               ; preds = %67
  tail call void @lean_dec_ref_cold(ptr noundef nonnull %7) #6
  br label %lean_dec.exit27

lean_dec.exit27:                                  ; preds = %68, %67, %65, %lean_dec.exit28
  %69 = ptrtoint ptr %6 to i64
  %70 = and i64 %69, 1
  %.not56 = icmp eq i64 %70, 0
  br i1 %.not56, label %71, label %lean_dec.exit26

71:                                               ; preds = %lean_dec.exit27
  %72 = load i32, ptr %6, align 4, !tbaa !6
  %73 = icmp sgt i32 %72, 1
  br i1 %73, label %74, label %76, !prof !5

74:                                               ; preds = %71
  %75 = add nsw i32 %72, -1
  store i32 %75, ptr %6, align 4, !tbaa !6
  br label %lean_dec.exit26

76:                                               ; preds = %71
  %.not.i43 = icmp eq i32 %72, 0
  br i1 %.not.i43, label %lean_dec.exit26, label %77

77:                                               ; preds = %76
  tail call void @lean_dec_ref_cold(ptr noundef nonnull %6) #6
  br label %lean_dec.exit26

lean_dec.exit26:                                  ; preds = %77, %76, %74, %lean_dec.exit27
  %78 = ptrtoint ptr %5 to i64
  %79 = and i64 %78, 1
  %.not57 = icmp eq i64 %79, 0
  br i1 %.not57, label %80, label %lean_dec.exit25

80:                                               ; preds = %lean_dec.exit26
  %81 = load i32, ptr %5, align 4, !tbaa !6
  %82 = icmp sgt i32 %81, 1
  br i1 %82, label %83, label %85, !prof !5

83:                                               ; preds = %80
  %84 = add nsw i32 %81, -1
  store i32 %84, ptr %5, align 4, !tbaa !6
  br label %lean_dec.exit25

85:                                               ; preds = %80
  %.not.i45 = icmp eq i32 %81, 0
  br i1 %.not.i45, label %lean_dec.exit25, label %86

86:                                               ; preds = %85
  tail call void @lean_dec_ref_cold(ptr noundef nonnull %5) #6
  br label %lean_dec.exit25

lean_dec.exit25:                                  ; preds = %86, %85, %83, %lean_dec.exit26
  %87 = ptrtoint ptr %4 to i64
  %88 = and i64 %87, 1
  %.not58 = icmp eq i64 %88, 0
  br i1 %.not58, label %89, label %lean_dec.exit24

89:                                               ; preds = %lean_dec.exit25
  %90 = load i32, ptr %4, align 4, !tbaa !6
  %91 = icmp sgt i32 %90, 1
  br i1 %91, label %92, label %94, !prof !5

92:                                               ; preds = %89
  %93 = add nsw i32 %90, -1
  store i32 %93, ptr %4, align 4, !tbaa !6
  br label %lean_dec.exit24

94:                                               ; preds = %89
  %.not.i47 = icmp eq i32 %90, 0
  br i1 %.not.i47, label %lean_dec.exit24, label %95

95:                                               ; preds = %94
  tail call void @lean_dec_ref_cold(ptr noundef nonnull %4) #6
  br label %lean_dec.exit24

lean_dec.exit24:                                  ; preds = %95, %94, %92, %lean_dec.exit25
  %96 = ptrtoint ptr %3 to i64
  %97 = and i64 %96, 1
  %.not59 = icmp eq i64 %97, 0
  br i1 %.not59, label %98, label %lean_dec.exit

98:                                               ; preds = %lean_dec.exit24
  %99 = load i32, ptr %3, align 4, !tbaa !6
  %100 = icmp sgt i32 %99, 1
  br i1 %100, label %101, label %103, !prof !5

101:                                              ; preds = %98
  %102 = add nsw i32 %99, -1
  store i32 %102, ptr %3, align 4, !tbaa !6
  br label %lean_dec.exit

103:                                              ; preds = %98
  %.not.i49 = icmp eq i32 %99, 0
  br i1 %.not.i49, label %lean_dec.exit, label %104

104:                                              ; preds = %103
  tail call void @lean_dec_ref_cold(ptr noundef nonnull %3) #6
  br label %lean_dec.exit

lean_dec.exit:                                    ; preds = %104, %103, %101, %lean_dec.exit24
  ret ptr %23
}